; Function Attrs: mustprogress uwtable
define void @_ZN4cvc56parser10SymManager5resetEv(ptr nocapture noundef nonnull readonly align 8 dereferenceable(56) %this) local_unnamed_addr #3 align 2 {
entry:
  %d_implementation = getelementptr inbounds i8, ptr %this, i64 8
  %0 = load ptr, ptr %d_implementation, align 8
  tail call void @_ZN4cvc58internal6parser11SymbolTable5resetEv(ptr noundef nonnull align 8 dereferenceable(8) %0)
  %d_context.i = getelementptr inbounds i8, ptr %0, i64 8
  %call57.i = tail call noundef i32 @_ZNK4cvc57context7Context8getLevelEv(ptr noundef nonnull align 8 dereferenceable(48) %d_context.i)
  %cmp.not8.i = icmp eq i32 %call57.i, 0
  br i1 %cmp.not8.i, label %_ZN4cvc56parser10SymManager14Implementation5resetEv.exit, label %while.body.i

while.body.i:                                     ; preds = %entry, %while.body.i
  tail call void @_ZN4cvc57context7Context3popEv(ptr noundef nonnull align 8 dereferenceable(48) %d_context.i)
  %call5.i = tail call noundef i32 @_ZNK4cvc57context7Context8getLevelEv(ptr noundef nonnull align 8 dereferenceable(48) %d_context.i)
  %cmp.not.i = icmp eq i32 %call5.i, 0
  br i1 %cmp.not.i, label %_ZN4cvc56parser10SymManager14Implementation5resetEv.exit, label %while.body.i, !llvm.loop !29

_ZN4cvc56parser10SymManager14Implementation5resetEv.exit: ; preds = %while.body.i, %entry
  tail call void @_ZN4cvc57context7Context4pushEv(ptr noundef nonnull align 8 dereferenceable(48) %d_context.i)
  ret void
}